target datalayout = "e-m:e-p270:32:32-p271:32:32-p272:64:64-i64:64-i128:128-f80:128-n8:16:32:64-S128"
target triple = "x86_64-pc-linux-gnu"

%struct.SDL_AudioDriver = type { ptr, ptr, %struct.SDL_AudioDriverImpl, ptr, ptr, ptr, i32, i32, %struct.SDL_PendingAudioDeviceEvent, ptr, %struct.SDL_AtomicInt, %struct.SDL_AtomicInt, %struct.SDL_AtomicInt }
%struct.SDL_AudioDriverImpl = type { ptr, ptr, ptr, ptr, ptr, ptr, ptr, ptr, ptr, ptr, ptr, ptr, ptr, ptr, i8, i8, i8, i8 }
%struct.SDL_PendingAudioDeviceEvent = type { i32, i32, ptr }
%struct.SDL_AtomicInt = type { i32 }
%struct.SDL_AudioSpec = type { i32, i32, i32 }
%struct.SDL_AudioDevice = type { ptr, ptr, %struct.SDL_AtomicInt, ptr, ptr, ptr, ptr, ptr, ptr, ptr, i32, ptr, %struct.SDL_AudioSpec, i32, ptr, %struct.SDL_AudioSpec, i32, i32, %struct.SDL_AtomicInt, %struct.SDL_AtomicInt, i8, i8, ptr, ptr, ptr, i32, ptr, i8, ptr, ptr }
%struct.SDL_LogicalAudioDevice = type { i32, ptr, %struct.SDL_AtomicInt, float, ptr, i8, i8, ptr, ptr, ptr, ptr, ptr, ptr, ptr }

@current_audio = internal global %struct.SDL_AudioDriver zeroinitializer, align 8
@.str.10 = private unnamed_addr constant [35 x i8] c"Audio subsystem is not initialized\00", align 1
@.str.12 = private unnamed_addr constant [33 x i8] c"Invalid audio device instance ID\00", align 1

; Function Attrs: nounwind uwtable
define hidden ptr @SDL_GetCurrentAudioDriver_REAL() #0 {
  %1 = load ptr, ptr @current_audio, align 8
  ret ptr %1
}

; Function Attrs: nounwind uwtable
define hidden ptr @SDL_GetAudioDeviceName_REAL(i32 noundef %0) #0 {
  %2 = alloca i32, align 4
  %3 = alloca i8, align 1
  %4 = alloca ptr, align 8
  %5 = alloca ptr, align 8
  %6 = alloca ptr, align 8
  %7 = alloca ptr, align 8
  store i32 %0, ptr %2, align 4
  call void @llvm.lifetime.start.p0(i64 1, ptr %3) #6
  %8 = load i32, ptr %2, align 4
  %9 = and i32 %8, 2
  %10 = icmp ne i32 %9, 0
  %11 = xor i1 %10, true
  %12 = zext i1 %11 to i8
  store i8 %12, ptr %3, align 1
  call void @llvm.lifetime.start.p0(i64 8, ptr %4) #6
  store ptr null, ptr %4, align 8
  call void @llvm.lifetime.start.p0(i64 8, ptr %5) #6
  store ptr null, ptr %5, align 8
  %13 = call ptr @SDL_GetCurrentAudioDriver_REAL()
  %14 = icmp ne ptr %13, null
  br i1 %14, label %17, label %15

15:                                               ; preds = %1
  %16 = call zeroext i1 (ptr, ...) @SDL_SetError_REAL(ptr noundef @.str.10)
  br label %54

17:                                               ; preds = %1
  %18 = load ptr, ptr getelementptr inbounds nuw (%struct.SDL_AudioDriver, ptr @current_audio, i32 0, i32 3), align 8
  call void @SDL_LockRWLockForReading_REAL(ptr noundef %18)
  %19 = load ptr, ptr getelementptr inbounds nuw (%struct.SDL_AudioDriver, ptr @current_audio, i32 0, i32 4), align 8
  %20 = load i32, ptr %2, align 4
  %21 = zext i32 %20 to i64
  %22 = inttoptr i64 %21 to ptr
  %23 = call zeroext i1 @SDL_FindInHashTable(ptr noundef %19, ptr noundef %22, ptr noundef %5)
  %24 = load ptr, ptr %5, align 8
  %25 = icmp ne ptr %24, null
  br i1 %25, label %28, label %26

26:                                               ; preds = %17
  %27 = call zeroext i1 (ptr, ...) @SDL_SetError_REAL(ptr noundef @.str.12)
  br label %52

28:                                               ; preds = %17
  %29 = load i8, ptr %3, align 1, !range !5, !noundef !6
  %30 = trunc i8 %29 to i1
  br i1 %30, label %31, label %42

31:                                               ; preds = %28
  call void @llvm.lifetime.start.p0(i64 8, ptr %6) #6
  %32 = load ptr, ptr %5, align 8
  store ptr %32, ptr %6, align 8
  br label %33

33:                                               ; preds = %31
  br label %34

34:                                               ; preds = %33
  br label %35

35:                                               ; preds = %34
  %36 = load ptr, ptr %6, align 8
  %37 = getelementptr inbounds nuw %struct.SDL_LogicalAudioDevice, ptr %36, i32 0, i32 1
  %38 = load ptr, ptr %37, align 8
  %39 = getelementptr inbounds nuw %struct.SDL_AudioDevice, ptr %38, i32 0, i32 9
  %40 = load ptr, ptr %39, align 8
  %41 = call ptr @SDL_GetPersistentString(ptr noundef %40)
  store ptr %41, ptr %4, align 8
  call void @llvm.lifetime.end.p0(i64 8, ptr %6) #6
  br label %51

42:                                               ; preds = %28
  call void @llvm.lifetime.start.p0(i64 8, ptr %7) #6
  %43 = load ptr, ptr %5, align 8
  store ptr %43, ptr %7, align 8
  br label %44

44:                                               ; preds = %42
  br label %45

45:                                               ; preds = %44
  br label %46

46:                                               ; preds = %45
  %47 = load ptr, ptr %7, align 8
  %48 = getelementptr inbounds nuw %struct.SDL_AudioDevice, ptr %47, i32 0, i32 9
  %49 = load ptr, ptr %48, align 8
  %50 = call ptr @SDL_GetPersistentString(ptr noundef %49)
  store ptr %50, ptr %4, align 8
  call void @llvm.lifetime.end.p0(i64 8, ptr %7) #6
  br label %51

51:                                               ; preds = %46, %35
  br label %52

52:                                               ; preds = %51, %26
  %53 = load ptr, ptr getelementptr inbounds nuw (%struct.SDL_AudioDriver, ptr @current_audio, i32 0, i32 3), align 8
  call void @SDL_UnlockRWLock_REAL(ptr noundef %53)
  br label %54

54:                                               ; preds = %52, %15
  %55 = load ptr, ptr %4, align 8
  call void @llvm.lifetime.end.p0(i64 8, ptr %5) #6
  call void @llvm.lifetime.end.p0(i64 8, ptr %4) #6
  call void @llvm.lifetime.end.p0(i64 1, ptr %3) #6
  ret ptr %55
}