; Function Attrs: nounwind uwtable
define hidden ptr @SDL_GetAudioDeviceName_REAL(i32 noundef %0) local_unnamed_addr #0 {
  %2 = alloca ptr, align 8
  %3 = and i32 %0, 2
  %.not = icmp eq i32 %3, 0
  call void @llvm.lifetime.start.p0(i64 8, ptr nonnull %2) #14
  store ptr null, ptr %2, align 8
  %4 = load ptr, ptr @current_audio, align 8
  %.not6 = icmp eq ptr %4, null
  br i1 %.not6, label %5, label %7

5:                                                ; preds = %1
  %6 = tail call zeroext i1 (ptr, ...) @SDL_SetError_REAL(ptr noundef nonnull @.str.10) #14
  br label %29

7:                                                ; preds = %1
  %8 = load ptr, ptr getelementptr inbounds nuw (i8, ptr @current_audio, i64 136), align 8
  tail call void @SDL_LockRWLockForReading_REAL(ptr noundef %8) #14
  %9 = load ptr, ptr getelementptr inbounds nuw (i8, ptr @current_audio, i64 144), align 8
  %10 = zext i32 %0 to i64
  %11 = inttoptr i64 %10 to ptr
  %12 = call zeroext i1 @SDL_FindInHashTable(ptr noundef %9, ptr noundef %11, ptr noundef nonnull %2) #14
  %13 = load ptr, ptr %2, align 8
  %.not7 = icmp eq ptr %13, null
  br i1 %.not7, label %14, label %16

14:                                               ; preds = %7
  %15 = call zeroext i1 (ptr, ...) @SDL_SetError_REAL(ptr noundef nonnull @.str.12) #14
  br label %27

16:                                               ; preds = %7
  br i1 %.not, label %17, label %23

17:                                               ; preds = %16
  %18 = getelementptr inbounds nuw i8, ptr %13, i64 8
  %19 = load ptr, ptr %18, align 8
  %20 = getelementptr inbounds nuw i8, ptr %19, i64 72
  %21 = load ptr, ptr %20, align 8
  %22 = call ptr @SDL_GetPersistentString(ptr noundef %21) #14
  br label %27

23:                                               ; preds = %16
  %24 = getelementptr inbounds nuw i8, ptr %13, i64 72
  %25 = load ptr, ptr %24, align 8
  %26 = call ptr @SDL_GetPersistentString(ptr noundef %25) #14
  br label %27

27:                                               ; preds = %17, %23, %14
  %.1 = phi ptr [ %22, %17 ], [ %26, %23 ], [ null, %14 ]
  %28 = load ptr, ptr getelementptr inbounds nuw (i8, ptr @current_audio, i64 136), align 8
  call void @SDL_UnlockRWLock_REAL(ptr noundef %28) #14
  br label %29

29:                                               ; preds = %27, %5
  %.0 = phi ptr [ %.1, %27 ], [ null, %5 ]
  call void @llvm.lifetime.end.p0(i64 8, ptr nonnull %2) #14
  ret ptr %.0
}